; Function Attrs: mustprogress nounwind uwtable
define internal fastcc void @"_ZZN9grpc_core9XdsClient13WatchResourceEPKNS_15XdsResourceTypeESt17basic_string_viewIcSt11char_traitsIcEENS_13RefCountedPtrINS0_24ResourceWatcherInterfaceEEEEN3$_4D2Ev"(ptr nocapture noundef nonnull readonly align 8 dereferenceable(16) %this) unnamed_addr #4 align 2 personality ptr @__gxx_personality_v0 {
entry:
  %0 = getelementptr inbounds i8, ptr %this, i64 8
  %1 = load i64, ptr %0, align 8
  %and.i.i.i = and i64 %1, 1
  %cmp.i.i.i = icmp eq i64 %and.i.i.i, 0
  br i1 %cmp.i.i.i, label %_ZN4absl12lts_202308026StatusD2Ev.exit, label %if.then.i.i

if.then.i.i:                                      ; preds = %entry
  invoke void @_ZN4absl12lts_202308026Status15UnrefNonInlinedEm(i64 noundef %1)
          to label %_ZN4absl12lts_202308026StatusD2Ev.exit unwind label %terminate.lpad.i

terminate.lpad.i:                                 ; preds = %if.then.i.i
  %2 = landingpad { ptr, i32 }
          catch ptr null
  %3 = extractvalue { ptr, i32 } %2, 0
  tail call void @__clang_call_terminate(ptr %3) #27
  unreachable

_ZN4absl12lts_202308026StatusD2Ev.exit:           ; preds = %entry, %if.then.i.i
  %4 = load ptr, ptr %this, align 8
  %cmp.not.i = icmp eq ptr %4, null
  br i1 %cmp.not.i, label %_ZN9grpc_core13RefCountedPtrINS_9XdsClient24ResourceWatcherInterfaceEED2Ev.exit, label %if.then.i

if.then.i:                                        ; preds = %_ZN4absl12lts_202308026StatusD2Ev.exit
  %refs_.i.i = getelementptr inbounds i8, ptr %4, i64 8
  %5 = atomicrmw sub ptr %refs_.i.i, i64 1 acq_rel, align 8
  %cmp.i.i.i1 = icmp eq i64 %5, 1
  br i1 %cmp.i.i.i1, label %if.then.i.i2, label %_ZN9grpc_core13RefCountedPtrINS_9XdsClient24ResourceWatcherInterfaceEED2Ev.exit

if.then.i.i2:                                     ; preds = %if.then.i
  %vtable.i.i.i = load ptr, ptr %4, align 8
  %vfn.i.i.i = getelementptr inbounds i8, ptr %vtable.i.i.i, i64 8
  %6 = load ptr, ptr %vfn.i.i.i, align 8
  tail call void %6(ptr noundef nonnull align 8 dereferenceable(16) %4) #25
  br label %_ZN9grpc_core13RefCountedPtrINS_9XdsClient24ResourceWatcherInterfaceEED2Ev.exit

_ZN9grpc_core13RefCountedPtrINS_9XdsClient24ResourceWatcherInterfaceEED2Ev.exit: ; preds = %_ZN4absl12lts_202308026StatusD2Ev.exit, %if.then.i, %if.then.i.i2
  ret void
}